target datalayout = "e-m:e-p270:32:32-p271:32:32-p272:64:64-i64:64-i128:128-f80:128-n8:16:32:64-S128"
target triple = "x86_64-pc-linux-gnu"

%struct.GlobalContext = type { %struct.HTable, ptr, ptr, ptr, ptr, ptr, ptr, ptr, ptr, i8, i32, i32, i32, ptr, ptr, %struct.HTable, %struct.HTable, %struct.Module_, %struct.DeclTable, %struct.DeclTable, %struct.Path_, ptr, ptr, ptr, ptr, ptr, ptr, ptr, [65536 x ptr], ptr, ptr, ptr }
%struct.HTable = type { i32, ptr }
%struct.Module_ = type { ptr, ptr, ptr, i16, i32, ptr, %struct.HTable, ptr, ptr, ptr, ptr, ptr, ptr, ptr, ptr, ptr }
%struct.DeclTable = type { i32, i32, i32, ptr }
%struct.Path_ = type { %union.SourceSpan, ptr, i32 }
%union.SourceSpan = type { i64 }
%struct.__va_list_tag = type { i32, i32, ptr, ptr }

@global_context = external global %struct.GlobalContext, align 8

; Function Attrs: nounwind uwtable
define internal void @vprint_error(i64 %0, ptr noundef %1, ptr noundef %2) #0 {
  %4 = alloca %union.SourceSpan, align 8
  %5 = alloca ptr, align 8
  %6 = alloca ptr, align 8
  %7 = getelementptr inbounds %union.SourceSpan, ptr %4, i32 0, i32 0
  store i64 %0, ptr %7, align 8
  store ptr %1, ptr %5, align 8
  store ptr %2, ptr %6, align 8
  %8 = load ptr, ptr %5, align 8
  %9 = load ptr, ptr %6, align 8
  %10 = call ptr @str_vprintf(ptr noundef %8, ptr noundef %9)
  %11 = getelementptr inbounds %union.SourceSpan, ptr %4, i32 0, i32 0
  %12 = load i64, ptr %11, align 8
  call void @print_error(i64 %12, ptr noundef %10, i32 noundef 0)
  ret void
}

; Function Attrs: nounwind uwtable
define dso_local void @sema_verror_range(i64 %0, ptr noundef %1, ptr noundef %2) #0 {
  %4 = alloca %union.SourceSpan, align 8
  %5 = alloca ptr, align 8
  %6 = alloca ptr, align 8
  %7 = getelementptr inbounds %union.SourceSpan, ptr %4, i32 0, i32 0
  store i64 %0, ptr %7, align 8
  store ptr %1, ptr %5, align 8
  store ptr %2, ptr %6, align 8
  %8 = load ptr, ptr %5, align 8
  %9 = load ptr, ptr %6, align 8
  %10 = getelementptr inbounds %union.SourceSpan, ptr %4, i32 0, i32 0
  %11 = load i64, ptr %10, align 8
  call void @vprint_error(i64 %11, ptr noundef %8, ptr noundef %9)
  %12 = load i32, ptr getelementptr inbounds (%struct.GlobalContext, ptr @global_context, i32 0, i32 10), align 4
  %13 = add i32 %12, 1
  store i32 %13, ptr getelementptr inbounds (%struct.GlobalContext, ptr @global_context, i32 0, i32 10), align 4
  ret void
}

; Function Attrs: nounwind uwtable
define dso_local void @sema_error_at(i64 %0, ptr noundef %1, ...) #0 {
  %3 = alloca %union.SourceSpan, align 8
  %4 = alloca ptr, align 8
  %5 = alloca [1 x %struct.__va_list_tag], align 16
  %6 = getelementptr inbounds %union.SourceSpan, ptr %3, i32 0, i32 0
  store i64 %0, ptr %6, align 8
  store ptr %1, ptr %4, align 8
  %7 = getelementptr inbounds [1 x %struct.__va_list_tag], ptr %5, i64 0, i64 0
  call void @llvm.va_start.p0(ptr %7)
  %8 = load ptr, ptr %4, align 8
  %9 = getelementptr inbounds [1 x %struct.__va_list_tag], ptr %5, i64 0, i64 0
  %10 = getelementptr inbounds %union.SourceSpan, ptr %3, i32 0, i32 0
  %11 = load i64, ptr %10, align 8
  call void @sema_verror_range(i64 %11, ptr noundef %8, ptr noundef %9)
  %12 = getelementptr inbounds [1 x %struct.__va_list_tag], ptr %5, i64 0, i64 0
  call void @llvm.va_end.p0(ptr %12)
  ret void
}