; Function Attrs: nounwind uwtable
define dso_local void @sema_error_at(i64 %0, ptr noundef %1, ...) local_unnamed_addr #0 {
  %3 = alloca [1 x %struct.__va_list_tag], align 16
  call void @llvm.va_start.p0(ptr nonnull %3)
  %4 = call ptr @str_vprintf(ptr noundef %1, ptr noundef nonnull %3) #8
  call fastcc void @print_error(i64 %0, ptr noundef %4, i32 noundef 0)
  %5 = load i32, ptr getelementptr inbounds (%struct.GlobalContext, ptr @global_context, i64 0, i32 10), align 4
  %6 = add i32 %5, 1
  store i32 %6, ptr getelementptr inbounds (%struct.GlobalContext, ptr @global_context, i64 0, i32 10), align 4
  call void @llvm.va_end.p0(ptr nonnull %3)
  ret void
}